target datalayout = "e-m:e-p270:32:32-p271:32:32-p272:64:64-i64:64-i128:128-f80:128-n8:16:32:64-S128"
target triple = "x86_64-pc-linux-gnu"

%"class.std::__cxx11::basic_string" = type { %"struct.std::__cxx11::basic_string<char>::_Alloc_hider", i64, %union.anon }
%"struct.std::__cxx11::basic_string<char>::_Alloc_hider" = type { ptr }
%union.anon = type { i64, [8 x i8] }
%"struct.std::_Rb_tree_key_compare.7" = type { %"struct.std::less.8" }
%"struct.std::less.8" = type { i8 }
%"struct.std::_Rb_tree_header" = type { %"struct.std::_Rb_tree_node_base", i64 }
%"struct.std::_Rb_tree_node_base" = type { i32, ptr, ptr, ptr }
%"class.std::set.26" = type { %"class.std::_Rb_tree.27" }
%"class.std::_Rb_tree.27" = type { %"struct.std::_Rb_tree<std::__cxx11::basic_string<char>, std::__cxx11::basic_string<char>, std::_Identity<std::__cxx11::basic_string<char>>, std::less<std::__cxx11::basic_string<char>>>::_Rb_tree_impl" }
%"struct.std::_Rb_tree<std::__cxx11::basic_string<char>, std::__cxx11::basic_string<char>, std::_Identity<std::__cxx11::basic_string<char>>, std::less<std::__cxx11::basic_string<char>>>::_Rb_tree_impl" = type { %"struct.std::_Rb_tree_key_compare.7", %"struct.std::_Rb_tree_header" }
%"struct.std::__detail::_List_node_header" = type { %"struct.std::__detail::_List_node_base", i64 }
%"struct.std::__detail::_List_node_base" = type { ptr, ptr }
%"class.std::__shared_count" = type { ptr }
%"class.std::_Function_base" = type { %"union.std::_Any_data", ptr }
%"union.std::_Any_data" = type { %"union.std::_Nocopy_types" }
%"union.std::_Nocopy_types" = type { { i64, i64 } }
%"struct.nix::LegacyArgs" = type { %"class.nix::MixCommonArgs.base", %"class.nix::RootArgs.base", %"class.std::function", %"class.nix::Args" }
%"class.nix::MixCommonArgs.base" = type { ptr, %"class.std::__cxx11::basic_string" }
%"class.nix::RootArgs.base" = type { ptr, %"class.std::__cxx11::basic_string", %"class.std::shared_ptr.145", %"class.std::vector.148", %"class.std::set.153" }
%"class.std::shared_ptr.145" = type { %"class.std::__shared_ptr.146" }
%"class.std::__shared_ptr.146" = type { ptr, %"class.std::__shared_count" }
%"class.std::vector.148" = type { %"struct.std::_Vector_base.149" }
%"struct.std::_Vector_base.149" = type { %"struct.std::_Vector_base<nix::RootArgs::DeferredCompletion, std::allocator<nix::RootArgs::DeferredCompletion>>::_Vector_impl" }
%"struct.std::_Vector_base<nix::RootArgs::DeferredCompletion, std::allocator<nix::RootArgs::DeferredCompletion>>::_Vector_impl" = type { %"struct.std::_Vector_base<nix::RootArgs::DeferredCompletion, std::allocator<nix::RootArgs::DeferredCompletion>>::_Vector_impl_data" }
%"struct.std::_Vector_base<nix::RootArgs::DeferredCompletion, std::allocator<nix::RootArgs::DeferredCompletion>>::_Vector_impl_data" = type { ptr, ptr, ptr }
%"class.std::set.153" = type { %"class.std::_Rb_tree.154" }
%"class.std::_Rb_tree.154" = type { %"struct.std::_Rb_tree<nix::ExperimentalFeature, nix::ExperimentalFeature, std::_Identity<nix::ExperimentalFeature>, std::less<nix::ExperimentalFeature>>::_Rb_tree_impl" }
%"struct.std::_Rb_tree<nix::ExperimentalFeature, nix::ExperimentalFeature, std::_Identity<nix::ExperimentalFeature>, std::less<nix::ExperimentalFeature>>::_Rb_tree_impl" = type { %"struct.std::_Rb_tree_key_compare.158", %"struct.std::_Rb_tree_header" }
%"struct.std::_Rb_tree_key_compare.158" = type { %"struct.std::less.159" }
%"struct.std::less.159" = type { i8 }
%"class.std::function" = type { %"class.std::_Function_base", ptr }
%"class.nix::Args" = type { ptr, %"class.std::map.127", %"class.std::map.132", %"class.std::__cxx11::list.140", %"class.std::__cxx11::list.140", %"class.std::set.26", ptr }
%"class.std::map.127" = type { %"class.std::_Rb_tree.128" }
%"class.std::_Rb_tree.128" = type { %"struct.std::_Rb_tree<std::__cxx11::basic_string<char>, std::pair<const std::__cxx11::basic_string<char>, std::shared_ptr<nix::Args::Flag>>, std::_Select1st<std::pair<const std::__cxx11::basic_string<char>, std::shared_ptr<nix::Args::Flag>>>, std::less<std::__cxx11::basic_string<char>>>::_Rb_tree_impl" }
%"struct.std::_Rb_tree<std::__cxx11::basic_string<char>, std::pair<const std::__cxx11::basic_string<char>, std::shared_ptr<nix::Args::Flag>>, std::_Select1st<std::pair<const std::__cxx11::basic_string<char>, std::shared_ptr<nix::Args::Flag>>>, std::less<std::__cxx11::basic_string<char>>>::_Rb_tree_impl" = type { %"struct.std::_Rb_tree_key_compare.7", %"struct.std::_Rb_tree_header" }
%"class.std::map.132" = type { %"class.std::_Rb_tree.133" }
%"class.std::_Rb_tree.133" = type { %"struct.std::_Rb_tree<char, std::pair<const char, std::shared_ptr<nix::Args::Flag>>, std::_Select1st<std::pair<const char, std::shared_ptr<nix::Args::Flag>>>, std::less<char>>::_Rb_tree_impl" }
%"struct.std::_Rb_tree<char, std::pair<const char, std::shared_ptr<nix::Args::Flag>>, std::_Select1st<std::pair<const char, std::shared_ptr<nix::Args::Flag>>>, std::less<char>>::_Rb_tree_impl" = type { %"struct.std::_Rb_tree_key_compare.137", %"struct.std::_Rb_tree_header" }
%"struct.std::_Rb_tree_key_compare.137" = type { %"struct.std::less.138" }
%"struct.std::less.138" = type { i8 }
%"class.std::__cxx11::list.140" = type { %"class.std::__cxx11::_List_base.141" }
%"class.std::__cxx11::_List_base.141" = type { %"struct.std::__cxx11::_List_base<nix::Args::ExpectedArg, std::allocator<nix::Args::ExpectedArg>>::_List_impl" }
%"struct.std::__cxx11::_List_base<nix::Args::ExpectedArg, std::allocator<nix::Args::ExpectedArg>>::_List_impl" = type { %"struct.std::__detail::_List_node_header" }

; Function Attrs: mustprogress nounwind uwtable
define linkonce_odr noundef zeroext i1 @_ZNKSt14_Function_base8_M_emptyEv(ptr noundef nonnull align 8 dereferenceable(24) %0) #2 comdat align 2 {
  %2 = alloca ptr, align 8
  store ptr %0, ptr %2, align 8
  %3 = load ptr, ptr %2, align 8
  %4 = getelementptr inbounds %"class.std::_Function_base", ptr %3, i32 0, i32 1
  %5 = load ptr, ptr %4, align 8
  %6 = icmp ne ptr %5, null
  %7 = xor i1 %6, true
  ret i1 %7
}

; Function Attrs: mustprogress nounwind uwtable
define linkonce_odr void @_ZNSt14_Function_baseD2Ev(ptr noundef nonnull align 8 dereferenceable(24) %0) unnamed_addr #2 comdat align 2 personality ptr @__gxx_personality_v0 {
  %2 = alloca ptr, align 8
  store ptr %0, ptr %2, align 8
  %3 = load ptr, ptr %2, align 8
  %4 = getelementptr inbounds %"class.std::_Function_base", ptr %3, i32 0, i32 1
  %5 = load ptr, ptr %4, align 8
  %6 = icmp ne ptr %5, null
  br i1 %6, label %7, label %14

7:                                                ; preds = %1
  %8 = getelementptr inbounds %"class.std::_Function_base", ptr %3, i32 0, i32 1
  %9 = load ptr, ptr %8, align 8
  %10 = getelementptr inbounds %"class.std::_Function_base", ptr %3, i32 0, i32 0
  %11 = getelementptr inbounds %"class.std::_Function_base", ptr %3, i32 0, i32 0
  %12 = invoke noundef zeroext i1 %9(ptr noundef nonnull align 8 dereferenceable(16) %10, ptr noundef nonnull align 8 dereferenceable(16) %11, i32 noundef 3)
          to label %13 unwind label %15

13:                                               ; preds = %7
  br label %14

14:                                               ; preds = %13, %1
  ret void

15:                                               ; preds = %7
  %16 = landingpad { ptr, i32 }
          catch ptr null
  %17 = extractvalue { ptr, i32 } %16, 0
  call void @__clang_call_terminate(ptr %17) #20
  unreachable
}

; Function Attrs: mustprogress nounwind uwtable
define linkonce_odr noundef zeroext i1 @_ZNKSt8functionIFbRSt14_List_iteratorINSt7__cxx1112basic_stringIcSt11char_traitsIcESaIcEEEERKS7_EEcvbEv(ptr noundef nonnull align 8 dereferenceable(32) %0) #2 comdat align 2 {
  %2 = alloca ptr, align 8
  store ptr %0, ptr %2, align 8
  %3 = load ptr, ptr %2, align 8
  %4 = call noundef zeroext i1 @_ZNKSt14_Function_base8_M_emptyEv(ptr noundef nonnull align 8 dereferenceable(24) %3)
  %5 = xor i1 %4, true
  ret i1 %5
}

; Function Attrs: mustprogress nounwind uwtable
define linkonce_odr void @_ZNSt14_Function_baseC2Ev(ptr noundef nonnull align 8 dereferenceable(24) %0) unnamed_addr #2 comdat align 2 {
  %2 = alloca ptr, align 8
  store ptr %0, ptr %2, align 8
  %3 = load ptr, ptr %2, align 8
  %4 = getelementptr inbounds %"class.std::_Function_base", ptr %3, i32 0, i32 0
  store ptr null, ptr %4, align 8
  %5 = getelementptr inbounds %"class.std::_Function_base", ptr %3, i32 0, i32 1
  store ptr null, ptr %5, align 8
  ret void
}

; Function Attrs: mustprogress nounwind uwtable
define linkonce_odr void @_ZNSt8functionIFbRSt14_List_iteratorINSt7__cxx1112basic_stringIcSt11char_traitsIcESaIcEEEERKS7_EED2Ev(ptr noundef nonnull align 8 dereferenceable(32) %0) unnamed_addr #2 comdat align 2 {
  %2 = alloca ptr, align 8
  store ptr %0, ptr %2, align 8
  %3 = load ptr, ptr %2, align 8
  call void @_ZNSt14_Function_baseD2Ev(ptr noundef nonnull align 8 dereferenceable(24) %3) #1
  ret void
}

; Function Attrs: mustprogress uwtable
define linkonce_odr void @_ZNSt8functionIFbRSt14_List_iteratorINSt7__cxx1112basic_stringIcSt11char_traitsIcESaIcEEEERKS7_EEC2ERKSC_(ptr noundef nonnull align 8 dereferenceable(32) %0, ptr noundef nonnull align 8 dereferenceable(32) %1) unnamed_addr #5 comdat align 2 personality ptr @__gxx_personality_v0 {
  %3 = alloca ptr, align 8
  %4 = alloca ptr, align 8
  %5 = alloca ptr, align 8
  %6 = alloca i32, align 4
  store ptr %0, ptr %3, align 8
  store ptr %1, ptr %4, align 8
  %7 = load ptr, ptr %3, align 8
  %8 = getelementptr inbounds i8, ptr %7, i64 0
  call void @llvm.memset.p0.i64(ptr align 8 %8, i8 0, i64 24, i1 false)
  call void @_ZNSt14_Function_baseC2Ev(ptr noundef nonnull align 8 dereferenceable(24) %7) #1
  %9 = getelementptr inbounds %"class.std::function", ptr %7, i32 0, i32 1
  store ptr null, ptr %9, align 8
  %10 = load ptr, ptr %4, align 8
  %11 = call noundef zeroext i1 @_ZNKSt8functionIFbRSt14_List_iteratorINSt7__cxx1112basic_stringIcSt11char_traitsIcESaIcEEEERKS7_EEcvbEv(ptr noundef nonnull align 8 dereferenceable(32) %10) #1
  br i1 %11, label %12, label %33

12:                                               ; preds = %2
  %13 = load ptr, ptr %4, align 8
  %14 = getelementptr inbounds %"class.std::_Function_base", ptr %13, i32 0, i32 1
  %15 = load ptr, ptr %14, align 8
  %16 = getelementptr inbounds %"class.std::_Function_base", ptr %7, i32 0, i32 0
  %17 = load ptr, ptr %4, align 8
  %18 = getelementptr inbounds %"class.std::_Function_base", ptr %17, i32 0, i32 0
  %19 = invoke noundef zeroext i1 %15(ptr noundef nonnull align 8 dereferenceable(16) %16, ptr noundef nonnull align 8 dereferenceable(16) %18, i32 noundef 2)
          to label %20 unwind label %29

20:                                               ; preds = %12
  %21 = load ptr, ptr %4, align 8
  %22 = getelementptr inbounds %"class.std::function", ptr %21, i32 0, i32 1
  %23 = load ptr, ptr %22, align 8
  %24 = getelementptr inbounds %"class.std::function", ptr %7, i32 0, i32 1
  store ptr %23, ptr %24, align 8
  %25 = load ptr, ptr %4, align 8
  %26 = getelementptr inbounds %"class.std::_Function_base", ptr %25, i32 0, i32 1
  %27 = load ptr, ptr %26, align 8
  %28 = getelementptr inbounds %"class.std::_Function_base", ptr %7, i32 0, i32 1
  store ptr %27, ptr %28, align 8
  br label %33

29:                                               ; preds = %12
  %30 = landingpad { ptr, i32 }
          cleanup
  %31 = extractvalue { ptr, i32 } %30, 0
  store ptr %31, ptr %5, align 8
  %32 = extractvalue { ptr, i32 } %30, 1
  store i32 %32, ptr %6, align 4
  call void @_ZNSt14_Function_baseD2Ev(ptr noundef nonnull align 8 dereferenceable(24) %7) #1
  br label %34

33:                                               ; preds = %20, %2
  ret void

34:                                               ; preds = %29
  %35 = load ptr, ptr %5, align 8
  %36 = load i32, ptr %6, align 4
  %37 = insertvalue { ptr, i32 } poison, ptr %35, 0
  %38 = insertvalue { ptr, i32 } %37, i32 %36, 1
  resume { ptr, i32 } %38
}

; Function Attrs: mustprogress uwtable
define void @_ZN3nix12parseCmdLineERKNSt7__cxx1112basic_stringIcSt11char_traitsIcESaIcEEERKNS0_4listIS5_SaIS5_EEESt8functionIFbRSt14_List_iteratorIS5_ERKSF_EE(ptr noundef nonnull align 8 dereferenceable(32) %0, ptr noundef nonnull align 8 dereferenceable(24) %1, ptr noundef %2) #5 personality ptr @__gxx_personality_v0 {
  %4 = alloca ptr, align 8
  %5 = alloca ptr, align 8
  %6 = alloca ptr, align 8
  %7 = alloca %"struct.nix::LegacyArgs", align 8
  %8 = alloca %"class.std::function", align 8
  %9 = alloca ptr, align 8
  %10 = alloca i32, align 4
  store ptr %0, ptr %4, align 8
  store ptr %1, ptr %5, align 8
  store ptr %2, ptr %6, align 8
  %11 = load ptr, ptr %4, align 8
  call void @_ZNSt8functionIFbRSt14_List_iteratorINSt7__cxx1112basic_stringIcSt11char_traitsIcESaIcEEEERKS7_EEC2ERKSC_(ptr noundef nonnull align 8 dereferenceable(32) %8, ptr noundef nonnull align 8 dereferenceable(32) %2)
  invoke void @_ZN3nix10LegacyArgsC1ERKNSt7__cxx1112basic_stringIcSt11char_traitsIcESaIcEEESt8functionIFbRSt14_List_iteratorIS6_ERKSB_EE(ptr noundef nonnull align 8 dereferenceable(200) %7, ptr noundef nonnull align 8 dereferenceable(32) %11, ptr noundef %8)
          to label %12 unwind label %16

12:                                               ; preds = %3
  %13 = getelementptr inbounds i8, ptr %7, i64 40
  %14 = load ptr, ptr %5, align 8
  invoke void @_ZN3nix8RootArgs12parseCmdlineERKNSt7__cxx114listINS1_12basic_stringIcSt11char_traitsIcESaIcEEESaIS7_EEEb(ptr noundef nonnull align 8 dereferenceable(128) %13, ptr noundef nonnull align 8 dereferenceable(24) %14, i1 noundef zeroext false)
          to label %15 unwind label %20

15:                                               ; preds = %12
  call void @_ZN3nix10LegacyArgsD1Ev(ptr noundef nonnull align 8 dereferenceable(200) %7) #1
  call void @_ZNSt8functionIFbRSt14_List_iteratorINSt7__cxx1112basic_stringIcSt11char_traitsIcESaIcEEEERKS7_EED2Ev(ptr noundef nonnull align 8 dereferenceable(32) %8) #1
  ret void

16:                                               ; preds = %3
  %17 = landingpad { ptr, i32 }
          cleanup
  %18 = extractvalue { ptr, i32 } %17, 0
  store ptr %18, ptr %9, align 8
  %19 = extractvalue { ptr, i32 } %17, 1
  store i32 %19, ptr %10, align 4
  br label %24

20:                                               ; preds = %12
  %21 = landingpad { ptr, i32 }
          cleanup
  %22 = extractvalue { ptr, i32 } %21, 0
  store ptr %22, ptr %9, align 8
  %23 = extractvalue { ptr, i32 } %21, 1
  store i32 %23, ptr %10, align 4
  call void @_ZN3nix10LegacyArgsD1Ev(ptr noundef nonnull align 8 dereferenceable(200) %7) #1
  br label %24

24:                                               ; preds = %20, %16
  call void @_ZNSt8functionIFbRSt14_List_iteratorINSt7__cxx1112basic_stringIcSt11char_traitsIcESaIcEEEERKS7_EED2Ev(ptr noundef nonnull align 8 dereferenceable(32) %8) #1
  br label %25

25:                                               ; preds = %24
  %26 = load ptr, ptr %9, align 8
  %27 = load i32, ptr %10, align 4
  %28 = insertvalue { ptr, i32 } poison, ptr %26, 0
  %29 = insertvalue { ptr, i32 } %28, i32 %27, 1
  resume { ptr, i32 } %29
}