; Function Attrs: mustprogress uwtable
define void @_ZN3nix12parseCmdLineERKNSt7__cxx1112basic_stringIcSt11char_traitsIcESaIcEEERKNS0_4listIS5_SaIS5_EEESt8functionIFbRSt14_List_iteratorIS5_ERKSF_EE(ptr noundef nonnull align 8 dereferenceable(32) %0, ptr noundef nonnull align 8 dereferenceable(24) %1, ptr noundef %2) local_unnamed_addr #5 personality ptr @__gxx_personality_v0 {
  %4 = alloca %"struct.nix::LegacyArgs", align 8
  %5 = alloca %"class.std::function", align 8
  %6 = getelementptr inbounds i8, ptr %5, i64 16
  %7 = getelementptr inbounds i8, ptr %2, i64 16
  call void @llvm.memset.p0.i64(ptr noundef nonnull align 8 dereferenceable(32) %5, i8 0, i64 32, i1 false)
  %8 = load ptr, ptr %7, align 8
  %.not.i.i.not.i = icmp eq ptr %8, null
  br i1 %.not.i.i.not.i, label %_ZNSt8functionIFbRSt14_List_iteratorINSt7__cxx1112basic_stringIcSt11char_traitsIcESaIcEEEERKS7_EEC2ERKSC_.exit, label %9

9:                                                ; preds = %3
  %10 = invoke noundef zeroext i1 %8(ptr noundef nonnull align 8 dereferenceable(16) %5, ptr noundef nonnull align 8 dereferenceable(16) %2, i32 noundef 2)
          to label %11 unwind label %13

11:                                               ; preds = %9
  %12 = load <2 x ptr>, ptr %7, align 8
  store <2 x ptr> %12, ptr %6, align 8
  br label %_ZNSt8functionIFbRSt14_List_iteratorINSt7__cxx1112basic_stringIcSt11char_traitsIcESaIcEEEERKS7_EEC2ERKSC_.exit

13:                                               ; preds = %9
  %14 = landingpad { ptr, i32 }
          cleanup
  %15 = load ptr, ptr %6, align 8
  %.not.i.i = icmp eq ptr %15, null
  br i1 %.not.i.i, label %common.resume, label %16

16:                                               ; preds = %13
  %17 = invoke noundef zeroext i1 %15(ptr noundef nonnull align 8 dereferenceable(16) %5, ptr noundef nonnull align 8 dereferenceable(16) %5, i32 noundef 3)
          to label %common.resume unwind label %18

18:                                               ; preds = %16
  %19 = landingpad { ptr, i32 }
          catch ptr null
  %20 = extractvalue { ptr, i32 } %19, 0
  call void @__clang_call_terminate(ptr %20) #34
  unreachable

common.resume:                                    ; preds = %52, %50, %13, %16
  %common.resume.op = phi { ptr, i32 } [ %14, %16 ], [ %14, %13 ], [ %.pn, %50 ], [ %.pn, %52 ]
  resume { ptr, i32 } %common.resume.op

_ZNSt8functionIFbRSt14_List_iteratorINSt7__cxx1112basic_stringIcSt11char_traitsIcESaIcEEEERKS7_EEC2ERKSC_.exit: ; preds = %3, %11
  invoke void @_ZN3nix10LegacyArgsC1ERKNSt7__cxx1112basic_stringIcSt11char_traitsIcESaIcEEESt8functionIFbRSt14_List_iteratorIS6_ERKSB_EE(ptr noundef nonnull align 8 dereferenceable(200) %4, ptr noundef nonnull align 8 dereferenceable(32) %0, ptr noundef nonnull %5)
          to label %21 unwind label %46

21:                                               ; preds = %_ZNSt8functionIFbRSt14_List_iteratorINSt7__cxx1112basic_stringIcSt11char_traitsIcESaIcEEEERKS7_EEC2ERKSC_.exit
  %22 = getelementptr inbounds i8, ptr %4, i64 40
  invoke void @_ZN3nix8RootArgs12parseCmdlineERKNSt7__cxx114listINS1_12basic_stringIcSt11char_traitsIcESaIcEEESaIS7_EEEb(ptr noundef nonnull align 8 dereferenceable(128) %22, ptr noundef nonnull align 8 dereferenceable(24) %1, i1 noundef zeroext false)
          to label %23 unwind label %48

23:                                               ; preds = %21
  store ptr getelementptr inbounds ({ [7 x ptr], [4 x ptr], [20 x ptr] }, ptr @_ZTVN3nix10LegacyArgsE, i64 0, i32 0, i64 3), ptr %4, align 8
  %24 = getelementptr inbounds i8, ptr %4, i64 200
  store ptr getelementptr inbounds ({ [7 x ptr], [4 x ptr], [20 x ptr] }, ptr @_ZTVN3nix10LegacyArgsE, i64 0, i32 2, i64 11), ptr %24, align 8
  store ptr getelementptr inbounds ({ [7 x ptr], [4 x ptr], [20 x ptr] }, ptr @_ZTVN3nix10LegacyArgsE, i64 0, i32 1, i64 3), ptr %22, align 8
  %25 = getelementptr inbounds i8, ptr %4, i64 184
  %26 = load ptr, ptr %25, align 8
  %.not.i.i.i.i = icmp eq ptr %26, null
  br i1 %.not.i.i.i.i, label %_ZNSt8functionIFbRSt14_List_iteratorINSt7__cxx1112basic_stringIcSt11char_traitsIcESaIcEEEERKS7_EED2Ev.exit.i.i, label %27

27:                                               ; preds = %23
  %28 = getelementptr inbounds i8, ptr %4, i64 168
  %29 = invoke noundef zeroext i1 %26(ptr noundef nonnull align 8 dereferenceable(16) %28, ptr noundef nonnull align 8 dereferenceable(16) %28, i32 noundef 3)
          to label %_ZNSt8functionIFbRSt14_List_iteratorINSt7__cxx1112basic_stringIcSt11char_traitsIcESaIcEEEERKS7_EED2Ev.exit.i.i unwind label %30

30:                                               ; preds = %27
  %31 = landingpad { ptr, i32 }
          catch ptr null
  %32 = extractvalue { ptr, i32 } %31, 0
  call void @__clang_call_terminate(ptr %32) #34
  unreachable

_ZNSt8functionIFbRSt14_List_iteratorINSt7__cxx1112basic_stringIcSt11char_traitsIcESaIcEEEERKS7_EED2Ev.exit.i.i: ; preds = %27, %23
  call void @_ZN3nix8RootArgsD2Ev(ptr noundef nonnull align 8 dereferenceable(128) %22, ptr noundef nonnull getelementptr inbounds ([7 x ptr], ptr @_ZTTN3nix10LegacyArgsE, i64 0, i64 3)) #30
  store ptr getelementptr inbounds ({ [5 x ptr], [20 x ptr] }, ptr @_ZTCN3nix10LegacyArgsE0_NS_13MixCommonArgsE, i64 0, i32 0, i64 3), ptr %4, align 8
  store ptr getelementptr inbounds ({ [5 x ptr], [20 x ptr] }, ptr @_ZTCN3nix10LegacyArgsE0_NS_13MixCommonArgsE, i64 0, i32 1, i64 11), ptr %24, align 8
  %33 = getelementptr inbounds i8, ptr %4, i64 8
  %34 = load ptr, ptr %33, align 8
  %35 = getelementptr inbounds i8, ptr %4, i64 24
  %36 = icmp eq ptr %34, %35
  br i1 %36, label %_ZNKSt7__cxx1112basic_stringIcSt11char_traitsIcESaIcEE11_M_is_localEv.exit.thread.i.i.i.i.i, label %_ZNKSt7__cxx1112basic_stringIcSt11char_traitsIcESaIcEE11_M_is_localEv.exit.i.i.i.i.i

_ZNKSt7__cxx1112basic_stringIcSt11char_traitsIcESaIcEE11_M_is_localEv.exit.thread.i.i.i.i.i: ; preds = %_ZNSt8functionIFbRSt14_List_iteratorINSt7__cxx1112basic_stringIcSt11char_traitsIcESaIcEEEERKS7_EED2Ev.exit.i.i
  %37 = getelementptr inbounds i8, ptr %4, i64 16
  %38 = load i64, ptr %37, align 8
  %39 = icmp ult i64 %38, 16
  call void @llvm.assume(i1 %39)
  br label %_ZN3nix10LegacyArgsD1Ev.exit

_ZNKSt7__cxx1112basic_stringIcSt11char_traitsIcESaIcEE11_M_is_localEv.exit.i.i.i.i.i: ; preds = %_ZNSt8functionIFbRSt14_List_iteratorINSt7__cxx1112basic_stringIcSt11char_traitsIcESaIcEEEERKS7_EED2Ev.exit.i.i
  call void @_ZdlPv(ptr noundef %34) #33
  br label %_ZN3nix10LegacyArgsD1Ev.exit

_ZN3nix10LegacyArgsD1Ev.exit:                     ; preds = %_ZNKSt7__cxx1112basic_stringIcSt11char_traitsIcESaIcEE11_M_is_localEv.exit.thread.i.i.i.i.i, %_ZNKSt7__cxx1112basic_stringIcSt11char_traitsIcESaIcEE11_M_is_localEv.exit.i.i.i.i.i
  call void @_ZNSaIcED2Ev(ptr noundef nonnull align 1 dereferenceable(1) %33) #30
  call void @_ZN3nix4ArgsD2Ev(ptr noundef nonnull align 8 dereferenceable(208) %24) #30
  %40 = load ptr, ptr %6, align 8
  %.not.i.i5 = icmp eq ptr %40, null
  br i1 %.not.i.i5, label %_ZNSt8functionIFbRSt14_List_iteratorINSt7__cxx1112basic_stringIcSt11char_traitsIcESaIcEEEERKS7_EED2Ev.exit, label %41

41:                                               ; preds = %_ZN3nix10LegacyArgsD1Ev.exit
  %42 = invoke noundef zeroext i1 %40(ptr noundef nonnull align 8 dereferenceable(16) %5, ptr noundef nonnull align 8 dereferenceable(16) %5, i32 noundef 3)
          to label %_ZNSt8functionIFbRSt14_List_iteratorINSt7__cxx1112basic_stringIcSt11char_traitsIcESaIcEEEERKS7_EED2Ev.exit unwind label %43

43:                                               ; preds = %41
  %44 = landingpad { ptr, i32 }
          catch ptr null
  %45 = extractvalue { ptr, i32 } %44, 0
  call void @__clang_call_terminate(ptr %45) #34
  unreachable

_ZNSt8functionIFbRSt14_List_iteratorINSt7__cxx1112basic_stringIcSt11char_traitsIcESaIcEEEERKS7_EED2Ev.exit: ; preds = %_ZN3nix10LegacyArgsD1Ev.exit, %41
  ret void

46:                                               ; preds = %_ZNSt8functionIFbRSt14_List_iteratorINSt7__cxx1112basic_stringIcSt11char_traitsIcESaIcEEEERKS7_EEC2ERKSC_.exit
  %47 = landingpad { ptr, i32 }
          cleanup
  br label %50

48:                                               ; preds = %21
  %49 = landingpad { ptr, i32 }
          cleanup
  call void @_ZN3nix10LegacyArgsD1Ev(ptr noundef nonnull align 8 dereferenceable(200) %4) #30
  br label %50

50:                                               ; preds = %48, %46
  %.pn = phi { ptr, i32 } [ %49, %48 ], [ %47, %46 ]
  %51 = load ptr, ptr %6, align 8
  %.not.i.i7 = icmp eq ptr %51, null
  br i1 %.not.i.i7, label %common.resume, label %52

52:                                               ; preds = %50
  %53 = invoke noundef zeroext i1 %51(ptr noundef nonnull align 8 dereferenceable(16) %5, ptr noundef nonnull align 8 dereferenceable(16) %5, i32 noundef 3)
          to label %common.resume unwind label %54

54:                                               ; preds = %52
  %55 = landingpad { ptr, i32 }
          catch ptr null
  %56 = extractvalue { ptr, i32 } %55, 0
  call void @__clang_call_terminate(ptr %56) #34
  unreachable
}